; Function Attrs: mustprogress nounwind uwtable
define internal fastcc void @_ZNSt10unique_ptrIN9grpc_core12_GLOBAL__N_117XdsOverrideHostLb9IdleTimerENS0_16OrphanableDeleteEED2Ev(ptr noundef nonnull align 8 captures(none) dereferenceable(8) %0) unnamed_addr #5 align 2 personality ptr @__gxx_personality_v0 {
  %2 = load ptr, ptr %0, align 8, !tbaa !137
  %.not = icmp eq ptr %2, null
  br i1 %.not, label %_ZN9grpc_core16OrphanableDeleteclINS_12_GLOBAL__N_117XdsOverrideHostLb9IdleTimerEEEvPT_.exit, label %3

3:                                                ; preds = %1
  invoke void @_ZN9grpc_core12_GLOBAL__N_117XdsOverrideHostLb9IdleTimer6OrphanEv(ptr noundef nonnull align 8 dereferenceable(48) %2)
          to label %_ZN9grpc_core16OrphanableDeleteclINS_12_GLOBAL__N_117XdsOverrideHostLb9IdleTimerEEEvPT_.exit unwind label %4

_ZN9grpc_core16OrphanableDeleteclINS_12_GLOBAL__N_117XdsOverrideHostLb9IdleTimerEEEvPT_.exit: ; preds = %3, %1
  store ptr null, ptr %0, align 8, !tbaa !137
  ret void

4:                                                ; preds = %3
  %5 = landingpad { ptr, i32 }
          catch ptr null
  %6 = extractvalue { ptr, i32 } %5, 0
  tail call void @__clang_call_terminate(ptr %6) #42
  unreachable
}